target datalayout = "e-m:e-p270:32:32-p271:32:32-p272:64:64-i64:64-i128:128-f80:128-n8:16:32:64-S128"
target triple = "x86_64-pc-linux-gnu"

%struct.mbedtls_mpi = type { ptr, i16, i16 }

; Function Attrs: inlinehint nounwind uwtable
define internal i32 @ecp_mod_koblitz(ptr noundef %0, ptr noundef %1, i64 noundef %2, i64 noundef %3, i64 noundef %4, i64 noundef %5) #2 {
  %7 = alloca i32, align 4
  %8 = alloca ptr, align 8
  %9 = alloca ptr, align 8
  %10 = alloca i64, align 8
  %11 = alloca i64, align 8
  %12 = alloca i64, align 8
  %13 = alloca i64, align 8
  %14 = alloca i32, align 4
  %15 = alloca i64, align 8
  %16 = alloca %struct.mbedtls_mpi, align 8
  %17 = alloca %struct.mbedtls_mpi, align 8
  %18 = alloca [6 x i64], align 16
  %19 = alloca i32, align 4
  store ptr %0, ptr %8, align 8, !tbaa !19
  store ptr %1, ptr %9, align 8, !tbaa !23
  store i64 %2, ptr %10, align 8, !tbaa !21
  store i64 %3, ptr %11, align 8, !tbaa !21
  store i64 %4, ptr %12, align 8, !tbaa !21
  store i64 %5, ptr %13, align 8, !tbaa !21
  call void @llvm.lifetime.start.p0(i64 4, ptr %14) #6
  store i32 -110, ptr %14, align 4, !tbaa !8
  call void @llvm.lifetime.start.p0(i64 8, ptr %15) #6
  call void @llvm.lifetime.start.p0(i64 16, ptr %16) #6
  call void @llvm.lifetime.start.p0(i64 16, ptr %17) #6
  call void @llvm.lifetime.start.p0(i64 48, ptr %18) #6
  %20 = load ptr, ptr %8, align 8, !tbaa !19
  %21 = getelementptr inbounds nuw %struct.mbedtls_mpi, ptr %20, i32 0, i32 2
  %22 = load i16, ptr %21, align 2, !tbaa !24
  %23 = zext i16 %22 to i64
  %24 = load i64, ptr %10, align 8, !tbaa !21
  %25 = icmp ult i64 %23, %24
  br i1 %25, label %26, label %27

26:                                               ; preds = %6
  store i32 0, ptr %7, align 4
  store i32 1, ptr %19, align 4
  br label %247

27:                                               ; preds = %6
  %28 = getelementptr inbounds nuw %struct.mbedtls_mpi, ptr %17, i32 0, i32 1
  store i16 1, ptr %28, align 8, !tbaa !37
  %29 = load ptr, ptr %9, align 8, !tbaa !23
  %30 = getelementptr inbounds nuw %struct.mbedtls_mpi, ptr %17, i32 0, i32 0
  store ptr %29, ptr %30, align 8, !tbaa !22
  %31 = getelementptr inbounds nuw %struct.mbedtls_mpi, ptr %17, i32 0, i32 2
  store i16 1, ptr %31, align 2, !tbaa !24
  %32 = getelementptr inbounds nuw %struct.mbedtls_mpi, ptr %16, i32 0, i32 1
  store i16 1, ptr %32, align 8, !tbaa !37
  %33 = getelementptr inbounds [6 x i64], ptr %18, i64 0, i64 0
  %34 = getelementptr inbounds nuw %struct.mbedtls_mpi, ptr %16, i32 0, i32 0
  store ptr %33, ptr %34, align 8, !tbaa !22
  %35 = load ptr, ptr %8, align 8, !tbaa !19
  %36 = getelementptr inbounds nuw %struct.mbedtls_mpi, ptr %35, i32 0, i32 2
  %37 = load i16, ptr %36, align 2, !tbaa !24
  %38 = zext i16 %37 to i64
  %39 = load i64, ptr %10, align 8, !tbaa !21
  %40 = load i64, ptr %11, align 8, !tbaa !21
  %41 = sub i64 %39, %40
  %42 = sub i64 %38, %41
  %43 = trunc i64 %42 to i16
  %44 = getelementptr inbounds nuw %struct.mbedtls_mpi, ptr %16, i32 0, i32 2
  store i16 %43, ptr %44, align 2, !tbaa !24
  %45 = getelementptr inbounds nuw %struct.mbedtls_mpi, ptr %16, i32 0, i32 2
  %46 = load i16, ptr %45, align 2, !tbaa !24
  %47 = zext i16 %46 to i64
  %48 = load i64, ptr %10, align 8, !tbaa !21
  %49 = load i64, ptr %11, align 8, !tbaa !21
  %50 = add i64 %48, %49
  %51 = icmp ugt i64 %47, %50
  br i1 %51, label %52, label %58

52:                                               ; preds = %27
  %53 = load i64, ptr %10, align 8, !tbaa !21
  %54 = load i64, ptr %11, align 8, !tbaa !21
  %55 = add i64 %53, %54
  %56 = trunc i64 %55 to i16
  %57 = getelementptr inbounds nuw %struct.mbedtls_mpi, ptr %16, i32 0, i32 2
  store i16 %56, ptr %57, align 2, !tbaa !24
  br label %58

58:                                               ; preds = %52, %27
  %59 = getelementptr inbounds [6 x i64], ptr %18, i64 0, i64 0
  call void @llvm.memset.p0.i64(ptr align 16 %59, i8 0, i64 48, i1 false)
  %60 = getelementptr inbounds [6 x i64], ptr %18, i64 0, i64 0
  %61 = load ptr, ptr %8, align 8, !tbaa !19
  %62 = getelementptr inbounds nuw %struct.mbedtls_mpi, ptr %61, i32 0, i32 0
  %63 = load ptr, ptr %62, align 8, !tbaa !22
  %64 = load i64, ptr %10, align 8, !tbaa !21
  %65 = getelementptr inbounds nuw i64, ptr %63, i64 %64
  %66 = load i64, ptr %11, align 8, !tbaa !21
  %67 = sub i64 0, %66
  %68 = getelementptr inbounds i64, ptr %65, i64 %67
  %69 = getelementptr inbounds nuw %struct.mbedtls_mpi, ptr %16, i32 0, i32 2
  %70 = load i16, ptr %69, align 2, !tbaa !24
  %71 = zext i16 %70 to i64
  %72 = mul i64 %71, 8
  call void @llvm.memcpy.p0.p0.i64(ptr align 16 %60, ptr align 8 %68, i64 %72, i1 false)
  %73 = load i64, ptr %12, align 8, !tbaa !21
  %74 = icmp ne i64 %73, 0
  br i1 %74, label %75, label %84

75:                                               ; preds = %58
  br label %76

76:                                               ; preds = %75
  %77 = load i64, ptr %12, align 8, !tbaa !21
  %78 = call i32 @mbedtls_mpi_shift_r(ptr noundef %16, i64 noundef %77)
  store i32 %78, ptr %14, align 4, !tbaa !8
  %79 = icmp ne i32 %78, 0
  br i1 %79, label %80, label %81

80:                                               ; preds = %76
  br label %245

81:                                               ; preds = %76
  br label %82

82:                                               ; preds = %81
  br label %83

83:                                               ; preds = %82
  br label %84

84:                                               ; preds = %83, %58
  %85 = getelementptr inbounds nuw %struct.mbedtls_mpi, ptr %17, i32 0, i32 2
  %86 = load i16, ptr %85, align 2, !tbaa !24
  %87 = zext i16 %86 to i32
  %88 = getelementptr inbounds nuw %struct.mbedtls_mpi, ptr %16, i32 0, i32 2
  %89 = load i16, ptr %88, align 2, !tbaa !24
  %90 = zext i16 %89 to i32
  %91 = add nsw i32 %90, %87
  %92 = trunc i32 %91 to i16
  store i16 %92, ptr %88, align 2, !tbaa !24
  %93 = load i64, ptr %13, align 8, !tbaa !21
  %94 = icmp ne i64 %93, 0
  br i1 %94, label %95, label %105

95:                                               ; preds = %84
  %96 = load i64, ptr %13, align 8, !tbaa !21
  %97 = load ptr, ptr %8, align 8, !tbaa !19
  %98 = getelementptr inbounds nuw %struct.mbedtls_mpi, ptr %97, i32 0, i32 0
  %99 = load ptr, ptr %98, align 8, !tbaa !22
  %100 = load i64, ptr %10, align 8, !tbaa !21
  %101 = sub i64 %100, 1
  %102 = getelementptr inbounds nuw i64, ptr %99, i64 %101
  %103 = load i64, ptr %102, align 8, !tbaa !21
  %104 = and i64 %103, %96
  store i64 %104, ptr %102, align 8, !tbaa !21
  br label %105

105:                                              ; preds = %95, %84
  %106 = load i64, ptr %10, align 8, !tbaa !21
  store i64 %106, ptr %15, align 8, !tbaa !21
  br label %107

107:                                              ; preds = %120, %105
  %108 = load i64, ptr %15, align 8, !tbaa !21
  %109 = load ptr, ptr %8, align 8, !tbaa !19
  %110 = getelementptr inbounds nuw %struct.mbedtls_mpi, ptr %109, i32 0, i32 2
  %111 = load i16, ptr %110, align 2, !tbaa !24
  %112 = zext i16 %111 to i64
  %113 = icmp ult i64 %108, %112
  br i1 %113, label %114, label %123

114:                                              ; preds = %107
  %115 = load ptr, ptr %8, align 8, !tbaa !19
  %116 = getelementptr inbounds nuw %struct.mbedtls_mpi, ptr %115, i32 0, i32 0
  %117 = load ptr, ptr %116, align 8, !tbaa !22
  %118 = load i64, ptr %15, align 8, !tbaa !21
  %119 = getelementptr inbounds nuw i64, ptr %117, i64 %118
  store i64 0, ptr %119, align 8, !tbaa !21
  br label %120

120:                                              ; preds = %114
  %121 = load i64, ptr %15, align 8, !tbaa !21
  %122 = add i64 %121, 1
  store i64 %122, ptr %15, align 8, !tbaa !21
  br label %107, !llvm.loop !51

123:                                              ; preds = %107
  br label %124

124:                                              ; preds = %123
  %125 = call i32 @mbedtls_mpi_mul_mpi(ptr noundef %16, ptr noundef %16, ptr noundef %17)
  store i32 %125, ptr %14, align 4, !tbaa !8
  %126 = icmp ne i32 %125, 0
  br i1 %126, label %127, label %128

127:                                              ; preds = %124
  br label %245

128:                                              ; preds = %124
  br label %129

129:                                              ; preds = %128
  br label %130

130:                                              ; preds = %129
  br label %131

131:                                              ; preds = %130
  %132 = load ptr, ptr %8, align 8, !tbaa !19
  %133 = load ptr, ptr %8, align 8, !tbaa !19
  %134 = call i32 @mbedtls_mpi_add_abs(ptr noundef %132, ptr noundef %133, ptr noundef %16)
  store i32 %134, ptr %14, align 4, !tbaa !8
  %135 = icmp ne i32 %134, 0
  br i1 %135, label %136, label %137

136:                                              ; preds = %131
  br label %245

137:                                              ; preds = %131
  br label %138

138:                                              ; preds = %137
  br label %139

139:                                              ; preds = %138
  %140 = load ptr, ptr %8, align 8, !tbaa !19
  %141 = getelementptr inbounds nuw %struct.mbedtls_mpi, ptr %140, i32 0, i32 2
  %142 = load i16, ptr %141, align 2, !tbaa !24
  %143 = zext i16 %142 to i64
  %144 = load i64, ptr %10, align 8, !tbaa !21
  %145 = load i64, ptr %11, align 8, !tbaa !21
  %146 = sub i64 %144, %145
  %147 = sub i64 %143, %146
  %148 = trunc i64 %147 to i16
  %149 = getelementptr inbounds nuw %struct.mbedtls_mpi, ptr %16, i32 0, i32 2
  store i16 %148, ptr %149, align 2, !tbaa !24
  %150 = getelementptr inbounds nuw %struct.mbedtls_mpi, ptr %16, i32 0, i32 2
  %151 = load i16, ptr %150, align 2, !tbaa !24
  %152 = zext i16 %151 to i64
  %153 = load i64, ptr %10, align 8, !tbaa !21
  %154 = load i64, ptr %11, align 8, !tbaa !21
  %155 = add i64 %153, %154
  %156 = icmp ugt i64 %152, %155
  br i1 %156, label %157, label %163

157:                                              ; preds = %139
  %158 = load i64, ptr %10, align 8, !tbaa !21
  %159 = load i64, ptr %11, align 8, !tbaa !21
  %160 = add i64 %158, %159
  %161 = trunc i64 %160 to i16
  %162 = getelementptr inbounds nuw %struct.mbedtls_mpi, ptr %16, i32 0, i32 2
  store i16 %161, ptr %162, align 2, !tbaa !24
  br label %163

163:                                              ; preds = %157, %139
  %164 = getelementptr inbounds [6 x i64], ptr %18, i64 0, i64 0
  call void @llvm.memset.p0.i64(ptr align 16 %164, i8 0, i64 48, i1 false)
  %165 = getelementptr inbounds [6 x i64], ptr %18, i64 0, i64 0
  %166 = load ptr, ptr %8, align 8, !tbaa !19
  %167 = getelementptr inbounds nuw %struct.mbedtls_mpi, ptr %166, i32 0, i32 0
  %168 = load ptr, ptr %167, align 8, !tbaa !22
  %169 = load i64, ptr %10, align 8, !tbaa !21
  %170 = getelementptr inbounds nuw i64, ptr %168, i64 %169
  %171 = load i64, ptr %11, align 8, !tbaa !21
  %172 = sub i64 0, %171
  %173 = getelementptr inbounds i64, ptr %170, i64 %172
  %174 = getelementptr inbounds nuw %struct.mbedtls_mpi, ptr %16, i32 0, i32 2
  %175 = load i16, ptr %174, align 2, !tbaa !24
  %176 = zext i16 %175 to i64
  %177 = mul i64 %176, 8
  call void @llvm.memcpy.p0.p0.i64(ptr align 16 %165, ptr align 8 %173, i64 %177, i1 false)
  %178 = load i64, ptr %12, align 8, !tbaa !21
  %179 = icmp ne i64 %178, 0
  br i1 %179, label %180, label %189

180:                                              ; preds = %163
  br label %181

181:                                              ; preds = %180
  %182 = load i64, ptr %12, align 8, !tbaa !21
  %183 = call i32 @mbedtls_mpi_shift_r(ptr noundef %16, i64 noundef %182)
  store i32 %183, ptr %14, align 4, !tbaa !8
  %184 = icmp ne i32 %183, 0
  br i1 %184, label %185, label %186

185:                                              ; preds = %181
  br label %245

186:                                              ; preds = %181
  br label %187

187:                                              ; preds = %186
  br label %188

188:                                              ; preds = %187
  br label %189

189:                                              ; preds = %188, %163
  %190 = getelementptr inbounds nuw %struct.mbedtls_mpi, ptr %17, i32 0, i32 2
  %191 = load i16, ptr %190, align 2, !tbaa !24
  %192 = zext i16 %191 to i32
  %193 = getelementptr inbounds nuw %struct.mbedtls_mpi, ptr %16, i32 0, i32 2
  %194 = load i16, ptr %193, align 2, !tbaa !24
  %195 = zext i16 %194 to i32
  %196 = add nsw i32 %195, %192
  %197 = trunc i32 %196 to i16
  store i16 %197, ptr %193, align 2, !tbaa !24
  %198 = load i64, ptr %13, align 8, !tbaa !21
  %199 = icmp ne i64 %198, 0
  br i1 %199, label %200, label %210

200:                                              ; preds = %189
  %201 = load i64, ptr %13, align 8, !tbaa !21
  %202 = load ptr, ptr %8, align 8, !tbaa !19
  %203 = getelementptr inbounds nuw %struct.mbedtls_mpi, ptr %202, i32 0, i32 0
  %204 = load ptr, ptr %203, align 8, !tbaa !22
  %205 = load i64, ptr %10, align 8, !tbaa !21
  %206 = sub i64 %205, 1
  %207 = getelementptr inbounds nuw i64, ptr %204, i64 %206
  %208 = load i64, ptr %207, align 8, !tbaa !21
  %209 = and i64 %208, %201
  store i64 %209, ptr %207, align 8, !tbaa !21
  br label %210

210:                                              ; preds = %200, %189
  %211 = load i64, ptr %10, align 8, !tbaa !21
  store i64 %211, ptr %15, align 8, !tbaa !21
  br label %212

212:                                              ; preds = %225, %210
  %213 = load i64, ptr %15, align 8, !tbaa !21
  %214 = load ptr, ptr %8, align 8, !tbaa !19
  %215 = getelementptr inbounds nuw %struct.mbedtls_mpi, ptr %214, i32 0, i32 2
  %216 = load i16, ptr %215, align 2, !tbaa !24
  %217 = zext i16 %216 to i64
  %218 = icmp ult i64 %213, %217
  br i1 %218, label %219, label %228

219:                                              ; preds = %212
  %220 = load ptr, ptr %8, align 8, !tbaa !19
  %221 = getelementptr inbounds nuw %struct.mbedtls_mpi, ptr %220, i32 0, i32 0
  %222 = load ptr, ptr %221, align 8, !tbaa !22
  %223 = load i64, ptr %15, align 8, !tbaa !21
  %224 = getelementptr inbounds nuw i64, ptr %222, i64 %223
  store i64 0, ptr %224, align 8, !tbaa !21
  br label %225

225:                                              ; preds = %219
  %226 = load i64, ptr %15, align 8, !tbaa !21
  %227 = add i64 %226, 1
  store i64 %227, ptr %15, align 8, !tbaa !21
  br label %212, !llvm.loop !52

228:                                              ; preds = %212
  br label %229

229:                                              ; preds = %228
  %230 = call i32 @mbedtls_mpi_mul_mpi(ptr noundef %16, ptr noundef %16, ptr noundef %17)
  store i32 %230, ptr %14, align 4, !tbaa !8
  %231 = icmp ne i32 %230, 0
  br i1 %231, label %232, label %233

232:                                              ; preds = %229
  br label %245

233:                                              ; preds = %229
  br label %234

234:                                              ; preds = %233
  br label %235

235:                                              ; preds = %234
  br label %236

236:                                              ; preds = %235
  %237 = load ptr, ptr %8, align 8, !tbaa !19
  %238 = load ptr, ptr %8, align 8, !tbaa !19
  %239 = call i32 @mbedtls_mpi_add_abs(ptr noundef %237, ptr noundef %238, ptr noundef %16)
  store i32 %239, ptr %14, align 4, !tbaa !8
  %240 = icmp ne i32 %239, 0
  br i1 %240, label %241, label %242

241:                                              ; preds = %236
  br label %245

242:                                              ; preds = %236
  br label %243

243:                                              ; preds = %242
  br label %244

244:                                              ; preds = %243
  br label %245

245:                                              ; preds = %244, %241, %232, %185, %136, %127, %80
  %246 = load i32, ptr %14, align 4, !tbaa !8
  store i32 %246, ptr %7, align 4
  store i32 1, ptr %19, align 4
  br label %247

247:                                              ; preds = %245, %26
  call void @llvm.lifetime.end.p0(i64 48, ptr %18) #6
  call void @llvm.lifetime.end.p0(i64 16, ptr %17) #6
  call void @llvm.lifetime.end.p0(i64 16, ptr %16) #6
  call void @llvm.lifetime.end.p0(i64 8, ptr %15) #6
  call void @llvm.lifetime.end.p0(i64 4, ptr %14) #6
  %248 = load i32, ptr %7, align 4
  ret i32 %248
}