; Function Attrs: inlinehint nounwind uwtable
define internal fastcc i32 @ecp_mod_koblitz(ptr noundef %0, ptr noundef %1, i64 noundef range(i64 3, 5) %2, i64 noundef range(i64 0, 2) %3, i64 noundef range(i64 0, 33) %4, i64 noundef range(i64 0, 4294967296) %5) unnamed_addr #5 {
  %7 = alloca %struct.mbedtls_mpi, align 8
  %8 = alloca %struct.mbedtls_mpi, align 8
  %9 = alloca [6 x i64], align 16
  call void @llvm.lifetime.start.p0(i64 16, ptr nonnull %7) #7
  call void @llvm.lifetime.start.p0(i64 16, ptr nonnull %8) #7
  call void @llvm.lifetime.start.p0(i64 48, ptr nonnull %9) #7
  %10 = getelementptr inbounds nuw i8, ptr %0, i64 10
  %11 = load i16, ptr %10, align 2, !tbaa !17
  %12 = zext i16 %11 to i64
  %13 = icmp samesign ugt i64 %2, %12
  br i1 %13, label %82, label %14

14:                                               ; preds = %6
  %15 = getelementptr inbounds nuw i8, ptr %8, i64 8
  store i16 1, ptr %15, align 8, !tbaa !16
  store ptr %1, ptr %8, align 8, !tbaa !18
  %16 = getelementptr inbounds nuw i8, ptr %8, i64 10
  store i16 1, ptr %16, align 2, !tbaa !17
  %17 = getelementptr inbounds nuw i8, ptr %7, i64 8
  store i16 1, ptr %17, align 8, !tbaa !16
  store ptr %9, ptr %7, align 8, !tbaa !18
  %18 = sub nuw nsw i64 %2, %3
  %19 = trunc nuw nsw i64 %18 to i16
  %20 = sub i16 %11, %19
  %21 = getelementptr inbounds nuw i8, ptr %7, i64 10
  %22 = zext i16 %20 to i64
  %23 = add nuw nsw i64 %3, %2
  %spec.select74 = call i64 @llvm.umin.i64(i64 %23, i64 %22)
  %spec.select = trunc nuw nsw i64 %spec.select74 to i16
  store i16 %spec.select, ptr %21, align 2, !tbaa !17
  call void @llvm.memset.p0.i64(ptr noundef nonnull align 16 dereferenceable(48) %9, i8 0, i64 48, i1 false)
  %24 = load ptr, ptr %0, align 8, !tbaa !18
  %25 = getelementptr inbounds nuw i64, ptr %24, i64 %2
  %26 = sub nsw i64 0, %3
  %27 = getelementptr inbounds i64, ptr %25, i64 %26
  %28 = shl nuw nsw i64 %spec.select74, 3
  call void @llvm.memcpy.p0.p0.i64(ptr nonnull align 16 %9, ptr nonnull align 8 %27, i64 %28, i1 false)
  %.not = icmp eq i64 %4, 0
  br i1 %.not, label %31, label %29

29:                                               ; preds = %14
  %30 = call i32 @mbedtls_mpi_shift_r(ptr noundef nonnull %7, i64 noundef %4) #7
  %.not66 = icmp eq i32 %30, 0
  br i1 %.not66, label %._crit_edge82, label %82

._crit_edge82:                                    ; preds = %29
  %.pre = load i16, ptr %21, align 2, !tbaa !17
  br label %31

31:                                               ; preds = %._crit_edge82, %14
  %32 = phi i16 [ %.pre, %._crit_edge82 ], [ %spec.select, %14 ]
  %33 = add i16 %32, 1
  store i16 %33, ptr %21, align 2, !tbaa !17
  %.not67 = icmp eq i64 %5, 0
  br i1 %.not67, label %40, label %34

34:                                               ; preds = %31
  %35 = load ptr, ptr %0, align 8, !tbaa !18
  %36 = getelementptr i64, ptr %35, i64 %2
  %37 = getelementptr i8, ptr %36, i64 -8
  %38 = load i64, ptr %37, align 8, !tbaa !24
  %39 = and i64 %38, %5
  store i64 %39, ptr %37, align 8, !tbaa !24
  br label %40

40:                                               ; preds = %34, %31
  %41 = load i16, ptr %10, align 2, !tbaa !17
  %42 = zext i16 %41 to i64
  %43 = icmp samesign ult i64 %2, %42
  br i1 %43, label %.lr.ph, label %._crit_edge

.lr.ph:                                           ; preds = %40
  %44 = load ptr, ptr %0, align 8, !tbaa !18
  %45 = shl nuw nsw i64 %2, 3
  %scevgep = getelementptr nuw i8, ptr %44, i64 %45
  %46 = sub nuw nsw i64 %42, %2
  %47 = shl nuw nsw i64 %46, 3
  call void @llvm.memset.p0.i64(ptr nonnull align 8 %scevgep, i8 0, i64 %47, i1 false), !tbaa !24
  br label %._crit_edge

._crit_edge:                                      ; preds = %.lr.ph, %40
  %48 = call i32 @mbedtls_mpi_mul_mpi(ptr noundef nonnull %7, ptr noundef nonnull %7, ptr noundef nonnull %8) #7
  %.not68 = icmp eq i32 %48, 0
  br i1 %.not68, label %49, label %82

49:                                               ; preds = %._crit_edge
  %50 = call i32 @mbedtls_mpi_add_abs(ptr noundef nonnull %0, ptr noundef nonnull %0, ptr noundef nonnull %7) #7
  %.not69 = icmp eq i32 %50, 0
  br i1 %.not69, label %51, label %82

51:                                               ; preds = %49
  %52 = load i16, ptr %10, align 2, !tbaa !17
  %53 = sub i16 %52, %19
  %54 = zext i16 %53 to i64
  %spec.select7375 = call i64 @llvm.umin.i64(i64 %23, i64 %54)
  %spec.select73 = trunc nuw nsw i64 %spec.select7375 to i16
  store i16 %spec.select73, ptr %21, align 2, !tbaa !17
  call void @llvm.memset.p0.i64(ptr noundef nonnull align 16 dereferenceable(48) %9, i8 0, i64 48, i1 false)
  %55 = load ptr, ptr %0, align 8, !tbaa !18
  %56 = getelementptr inbounds nuw i64, ptr %55, i64 %2
  %57 = getelementptr inbounds i64, ptr %56, i64 %26
  %58 = shl nuw nsw i64 %spec.select7375, 3
  call void @llvm.memcpy.p0.p0.i64(ptr nonnull align 16 %9, ptr nonnull align 8 %57, i64 %58, i1 false)
  br i1 %.not, label %61, label %59

59:                                               ; preds = %51
  %60 = call i32 @mbedtls_mpi_shift_r(ptr noundef nonnull %7, i64 noundef %4) #7
  %.not71 = icmp eq i32 %60, 0
  br i1 %.not71, label %._crit_edge83, label %82

._crit_edge83:                                    ; preds = %59
  %.pre84 = load i16, ptr %21, align 2, !tbaa !17
  br label %61

61:                                               ; preds = %._crit_edge83, %51
  %62 = phi i16 [ %.pre84, %._crit_edge83 ], [ %spec.select73, %51 ]
  %63 = load i16, ptr %16, align 2, !tbaa !17
  %64 = add i16 %62, %63
  store i16 %64, ptr %21, align 2, !tbaa !17
  br i1 %.not67, label %71, label %65

65:                                               ; preds = %61
  %66 = load ptr, ptr %0, align 8, !tbaa !18
  %67 = getelementptr i64, ptr %66, i64 %2
  %68 = getelementptr i8, ptr %67, i64 -8
  %69 = load i64, ptr %68, align 8, !tbaa !24
  %70 = and i64 %69, %5
  store i64 %70, ptr %68, align 8, !tbaa !24
  br label %71

71:                                               ; preds = %65, %61
  %72 = load i16, ptr %10, align 2, !tbaa !17
  %73 = zext i16 %72 to i64
  %74 = icmp samesign ult i64 %2, %73
  br i1 %74, label %.lr.ph79, label %._crit_edge80

.lr.ph79:                                         ; preds = %71
  %75 = load ptr, ptr %0, align 8, !tbaa !18
  %76 = shl nuw nsw i64 %2, 3
  %scevgep81 = getelementptr nuw i8, ptr %75, i64 %76
  %77 = sub nuw nsw i64 %73, %2
  %78 = shl nuw nsw i64 %77, 3
  call void @llvm.memset.p0.i64(ptr nonnull align 8 %scevgep81, i8 0, i64 %78, i1 false), !tbaa !24
  br label %._crit_edge80

._crit_edge80:                                    ; preds = %.lr.ph79, %71
  %79 = call i32 @mbedtls_mpi_mul_mpi(ptr noundef nonnull %7, ptr noundef nonnull %7, ptr noundef nonnull %8) #7
  %.not72 = icmp eq i32 %79, 0
  br i1 %.not72, label %80, label %82

80:                                               ; preds = %._crit_edge80
  %81 = call i32 @mbedtls_mpi_add_abs(ptr noundef nonnull %0, ptr noundef nonnull %0, ptr noundef nonnull %7) #7
  br label %82

82:                                               ; preds = %29, %._crit_edge, %49, %59, %._crit_edge80, %80, %6
  %.053 = phi i32 [ 0, %6 ], [ %30, %29 ], [ %48, %._crit_edge ], [ %50, %49 ], [ %60, %59 ], [ %79, %._crit_edge80 ], [ %81, %80 ]
  call void @llvm.lifetime.end.p0(i64 48, ptr nonnull %9) #7
  call void @llvm.lifetime.end.p0(i64 16, ptr nonnull %8) #7
  call void @llvm.lifetime.end.p0(i64 16, ptr nonnull %7) #7
  ret i32 %.053
}